; Function Attrs: mustprogress uwtable
define void @_ZN3gmx16ScaleCoordinatesC2ERKNS_11BasicVectorIfEE(ptr nocapture noundef nonnull writeonly align 8 dereferenceable(8) %0, ptr noundef nonnull align 4 dereferenceable(12) %1) unnamed_addr #3 align 2 personality ptr @__gxx_personality_v0 {
  %3 = tail call noalias noundef nonnull dereferenceable(12) ptr @_Znwm(i64 noundef 12) #16
  invoke void @_ZN3gmx16ScaleCoordinates4ImplC1ERKNS_11BasicVectorIfEE(ptr noundef nonnull align 4 dereferenceable(12) %3, ptr noundef nonnull align 4 dereferenceable(12) %1)
          to label %4 unwind label %5

4:                                                ; preds = %2
  store ptr %3, ptr %0, align 8
  ret void

5:                                                ; preds = %2
  %6 = landingpad { ptr, i32 }
          cleanup
  tail call void @_ZdlPv(ptr noundef nonnull %3) #17
  resume { ptr, i32 } %6
}